; Function Attrs: nounwind uwtable
define ptr @Aig_IthVar(ptr noundef %0, i32 noundef %1) local_unnamed_addr #0 {
  %3 = getelementptr i8, ptr %0, i64 136
  %.val = load i32, ptr %3, align 8, !tbaa !3
  %.not8 = icmp sgt i32 %.val, %1
  br i1 %.not8, label %._crit_edge, label %.lr.ph

.lr.ph:                                           ; preds = %2, %.lr.ph
  %.09 = phi i32 [ %5, %.lr.ph ], [ %.val, %2 ]
  %4 = tail call ptr @Aig_ObjCreateCi(ptr noundef %0) #7
  %5 = add i32 %.09, 1
  %exitcond.not = icmp eq i32 %.09, %1
  br i1 %exitcond.not, label %._crit_edge, label %.lr.ph, !llvm.loop !7

._crit_edge:                                      ; preds = %.lr.ph, %2
  %6 = getelementptr i8, ptr %0, i64 16
  %.val7 = load ptr, ptr %6, align 8, !tbaa !9
  %7 = getelementptr i8, ptr %.val7, i64 8
  %.val7.val = load ptr, ptr %7, align 8, !tbaa !24
  %8 = sext i32 %1 to i64
  %9 = getelementptr inbounds ptr, ptr %.val7.val, i64 %8
  %10 = load ptr, ptr %9, align 8, !tbaa !26
  ret ptr %10
}